target datalayout = "e-m:e-p270:32:32-p271:32:32-p272:64:64-i64:64-i128:128-f80:128-n8:16:32:64-S128"
target triple = "x86_64-pc-linux-gnu"

%"struct.std::pair" = type { i64, i64 }

@__const._ZN4abslL7PowFiveEmi.powers_of_five = private unnamed_addr constant [13 x i32] [i32 1, i32 5, i32 25, i32 125, i32 625, i32 3125, i32 15625, i32 78125, i32 390625, i32 1953125, i32 9765625, i32 48828125, i32 244140625], align 16

; Function Attrs: alwaysinline mustprogress nounwind uwtable
define linkonce_odr dso_local noundef i32 @_ZN4absl16numeric_internal20CountLeadingZeroes64Em(i64 noundef %0) #13 comdat {
  %2 = alloca i64, align 8
  store i64 %0, ptr %2, align 8, !tbaa !12
  %3 = load i64, ptr %2, align 8, !tbaa !12
  %4 = icmp eq i64 %3, 0
  br i1 %4, label %5, label %6

5:                                                ; preds = %1
  br label %10

6:                                                ; preds = %1
  %7 = load i64, ptr %2, align 8, !tbaa !12
  %8 = call i64 @llvm.ctlz.i64(i64 %7, i1 true)
  %9 = trunc i64 %8 to i32
  br label %10

10:                                               ; preds = %6, %5
  %11 = phi i32 [ 64, %5 ], [ %9, %6 ]
  ret i32 %11
}

; Function Attrs: noinline noreturn nounwind uwtable
define linkonce_odr hidden void @__clang_call_terminate(ptr noundef %0) #11 comdat {
  %2 = call ptr @__cxa_begin_catch(ptr %0) #16
  call void @_ZSt9terminatev() #17
  unreachable
}

; Function Attrs: alwaysinline mustprogress uwtable
define linkonce_odr dso_local noundef i32 @_ZN4absl16numeric_internal18CountLeadingZeroesImEEiT_(i64 noundef %0) #8 comdat {
  %2 = alloca i64, align 8
  store i64 %0, ptr %2, align 8, !tbaa !12
  %3 = load i64, ptr %2, align 8, !tbaa !12
  %4 = call noundef i32 @_ZN4absl16numeric_internal20CountLeadingZeroes64Em(i64 noundef %3)
  ret i32 %4
}

; Function Attrs: inlinehint mustprogress nounwind uwtable
define linkonce_odr dso_local noundef i32 @_ZN4absl9bit_widthImEENSt9enable_ifIXsr3std11is_unsignedIT_EE5valueEiE4typeES2_(i64 noundef %0) #9 comdat {
  %2 = alloca i64, align 8
  store i64 %0, ptr %2, align 8, !tbaa !12
  %3 = load i64, ptr %2, align 8, !tbaa !12
  %4 = call noundef i32 @_ZN4absl11countl_zeroImEENSt9enable_ifIXsr3std11is_unsignedIT_EE5valueEiE4typeES2_(i64 noundef %3) #16
  %5 = sub nsw i32 64, %4
  ret i32 %5
}

; Function Attrs: mustprogress nounwind uwtable
define linkonce_odr dso_local void @_ZNSt4pairImmEC2IRmS2_TnNSt9enable_ifIXaaclsr5_PCCPE22_MoveConstructiblePairIT_T0_EEclsr5_PCCPE30_ImplicitlyMoveConvertiblePairIS4_S5_EEEbE4typeELb1EEEOS4_OS5_(ptr noundef nonnull align 8 dereferenceable(16) %0, ptr noundef nonnull align 8 dereferenceable(8) %1, ptr noundef nonnull align 8 dereferenceable(8) %2) unnamed_addr #4 comdat align 2 {
  %4 = alloca ptr, align 8
  %5 = alloca ptr, align 8
  %6 = alloca ptr, align 8
  store ptr %0, ptr %4, align 8, !tbaa !77
  store ptr %1, ptr %5, align 8, !tbaa !54
  store ptr %2, ptr %6, align 8, !tbaa !54
  %7 = load ptr, ptr %4, align 8
  %8 = getelementptr inbounds nuw %"struct.std::pair", ptr %7, i32 0, i32 0
  %9 = load ptr, ptr %5, align 8, !tbaa !54
  %10 = load i64, ptr %9, align 8, !tbaa !12
  store i64 %10, ptr %8, align 8, !tbaa !47
  %11 = getelementptr inbounds nuw %"struct.std::pair", ptr %7, i32 0, i32 1
  %12 = load ptr, ptr %6, align 8, !tbaa !54
  %13 = load i64, ptr %12, align 8, !tbaa !12
  store i64 %13, ptr %11, align 8, !tbaa !49
  ret void
}

; Function Attrs: inlinehint mustprogress nounwind uwtable
define linkonce_odr dso_local noundef i32 @_ZN4absl11countl_zeroImEENSt9enable_ifIXsr3std11is_unsignedIT_EE5valueEiE4typeES2_(i64 noundef %0) #9 comdat personality ptr @__gxx_personality_v0 {
  %2 = alloca i64, align 8
  store i64 %0, ptr %2, align 8, !tbaa !12
  %3 = load i64, ptr %2, align 8, !tbaa !12
  %4 = invoke noundef i32 @_ZN4absl16numeric_internal18CountLeadingZeroesImEEiT_(i64 noundef %3)
          to label %5 unwind label %6

5:                                                ; preds = %1
  ret i32 %4

6:                                                ; preds = %1
  %7 = landingpad { ptr, i32 }
          catch ptr null
  %8 = extractvalue { ptr, i32 } %7, 0
  call void @__clang_call_terminate(ptr %8) #17
  unreachable
}

; Function Attrs: mustprogress nounwind uwtable
define linkonce_odr dso_local noundef nonnull align 8 dereferenceable(16) ptr @_ZNSt4pairImmEaSEOS0_(ptr noundef nonnull align 8 dereferenceable(16) %0, ptr noundef nonnull align 8 dereferenceable(16) %1) #4 comdat align 2 {
  %3 = alloca ptr, align 8
  %4 = alloca ptr, align 8
  store ptr %0, ptr %3, align 8, !tbaa !77
  store ptr %1, ptr %4, align 8, !tbaa !77
  %5 = load ptr, ptr %3, align 8
  %6 = load ptr, ptr %4, align 8, !tbaa !77
  %7 = getelementptr inbounds nuw %"struct.std::pair", ptr %6, i32 0, i32 0
  %8 = load i64, ptr %7, align 8, !tbaa !12
  %9 = getelementptr inbounds nuw %"struct.std::pair", ptr %5, i32 0, i32 0
  store i64 %8, ptr %9, align 8, !tbaa !47
  %10 = load ptr, ptr %4, align 8, !tbaa !77
  %11 = getelementptr inbounds nuw %"struct.std::pair", ptr %10, i32 0, i32 1
  %12 = load i64, ptr %11, align 8, !tbaa !12
  %13 = getelementptr inbounds nuw %"struct.std::pair", ptr %5, i32 0, i32 1
  store i64 %12, ptr %13, align 8, !tbaa !49
  ret ptr %5
}

; Function Attrs: mustprogress uwtable
define internal { i64, i64 } @_ZN4abslL5Mul32ESt4pairImmEj(i64 %0, i64 %1, i32 noundef %2) #0 {
  %4 = alloca %"struct.std::pair", align 8
  %5 = alloca %"struct.std::pair", align 8
  %6 = alloca i32, align 4
  %7 = alloca i64, align 8
  %8 = alloca i64, align 8
  %9 = alloca i64, align 8
  %10 = alloca i64, align 8
  %11 = alloca i64, align 8
  %12 = alloca i64, align 8
  %13 = alloca i64, align 8
  %14 = alloca i32, align 4
  %15 = alloca i32, align 4
  %16 = alloca i64, align 8
  %17 = alloca i64, align 8
  %18 = getelementptr inbounds nuw { i64, i64 }, ptr %5, i32 0, i32 0
  store i64 %0, ptr %18, align 8
  %19 = getelementptr inbounds nuw { i64, i64 }, ptr %5, i32 0, i32 1
  store i64 %1, ptr %19, align 8
  store i32 %2, ptr %6, align 4, !tbaa !34
  call void @llvm.lifetime.start.p0(i64 8, ptr %7) #16
  %20 = getelementptr inbounds nuw %"struct.std::pair", ptr %5, i32 0, i32 1
  %21 = load i64, ptr %20, align 8, !tbaa !49
  %22 = and i64 %21, 4294967295
  store i64 %22, ptr %7, align 8, !tbaa !12
  call void @llvm.lifetime.start.p0(i64 8, ptr %8) #16
  %23 = getelementptr inbounds nuw %"struct.std::pair", ptr %5, i32 0, i32 1
  %24 = load i64, ptr %23, align 8, !tbaa !49
  %25 = lshr i64 %24, 32
  store i64 %25, ptr %8, align 8, !tbaa !12
  call void @llvm.lifetime.start.p0(i64 8, ptr %9) #16
  %26 = getelementptr inbounds nuw %"struct.std::pair", ptr %5, i32 0, i32 0
  %27 = load i64, ptr %26, align 8, !tbaa !47
  %28 = and i64 %27, 4294967295
  store i64 %28, ptr %9, align 8, !tbaa !12
  call void @llvm.lifetime.start.p0(i64 8, ptr %10) #16
  %29 = getelementptr inbounds nuw %"struct.std::pair", ptr %5, i32 0, i32 0
  %30 = load i64, ptr %29, align 8, !tbaa !47
  %31 = lshr i64 %30, 32
  store i64 %31, ptr %10, align 8, !tbaa !12
  %32 = load i32, ptr %6, align 4, !tbaa !34
  %33 = zext i32 %32 to i64
  %34 = load i64, ptr %7, align 8, !tbaa !12
  %35 = mul i64 %34, %33
  store i64 %35, ptr %7, align 8, !tbaa !12
  %36 = load i32, ptr %6, align 4, !tbaa !34
  %37 = zext i32 %36 to i64
  %38 = load i64, ptr %8, align 8, !tbaa !12
  %39 = mul i64 %38, %37
  store i64 %39, ptr %8, align 8, !tbaa !12
  %40 = load i32, ptr %6, align 4, !tbaa !34
  %41 = zext i32 %40 to i64
  %42 = load i64, ptr %9, align 8, !tbaa !12
  %43 = mul i64 %42, %41
  store i64 %43, ptr %9, align 8, !tbaa !12
  %44 = load i32, ptr %6, align 4, !tbaa !34
  %45 = zext i32 %44 to i64
  %46 = load i64, ptr %10, align 8, !tbaa !12
  %47 = mul i64 %46, %45
  store i64 %47, ptr %10, align 8, !tbaa !12
  call void @llvm.lifetime.start.p0(i64 8, ptr %11) #16
  %48 = load i64, ptr %7, align 8, !tbaa !12
  %49 = load i64, ptr %8, align 8, !tbaa !12
  %50 = shl i64 %49, 32
  %51 = add i64 %48, %50
  store i64 %51, ptr %11, align 8, !tbaa !12
  call void @llvm.lifetime.start.p0(i64 8, ptr %12) #16
  %52 = load i64, ptr %9, align 8, !tbaa !12
  %53 = load i64, ptr %10, align 8, !tbaa !12
  %54 = shl i64 %53, 32
  %55 = add i64 %52, %54
  %56 = load i64, ptr %8, align 8, !tbaa !12
  %57 = lshr i64 %56, 32
  %58 = add i64 %55, %57
  %59 = load i64, ptr %11, align 8, !tbaa !12
  %60 = load i64, ptr %7, align 8, !tbaa !12
  %61 = icmp ult i64 %59, %60
  %62 = zext i1 %61 to i64
  %63 = add i64 %58, %62
  store i64 %63, ptr %12, align 8, !tbaa !12
  call void @llvm.lifetime.start.p0(i64 8, ptr %13) #16
  %64 = load i64, ptr %10, align 8, !tbaa !12
  %65 = lshr i64 %64, 32
  %66 = load i64, ptr %12, align 8, !tbaa !12
  %67 = load i64, ptr %9, align 8, !tbaa !12
  %68 = icmp ult i64 %66, %67
  %69 = zext i1 %68 to i64
  %70 = add i64 %65, %69
  store i64 %70, ptr %13, align 8, !tbaa !12
  %71 = load i64, ptr %13, align 8, !tbaa !12
  %72 = icmp eq i64 %71, 0
  br i1 %72, label %73, label %74

73:                                               ; preds = %3
  call void @_ZNSt4pairImmEC2IRmS2_TnNSt9enable_ifIXaaclsr5_PCCPE22_MoveConstructiblePairIT_T0_EEclsr5_PCCPE30_ImplicitlyMoveConvertiblePairIS4_S5_EEEbE4typeELb1EEEOS4_OS5_(ptr noundef nonnull align 8 dereferenceable(16) %4, ptr noundef nonnull align 8 dereferenceable(8) %12, ptr noundef nonnull align 8 dereferenceable(8) %11)
  store i32 1, ptr %14, align 4
  br label %97

74:                                               ; preds = %3
  call void @llvm.lifetime.start.p0(i64 4, ptr %15) #16
  %75 = load i64, ptr %13, align 8, !tbaa !12
  %76 = call noundef i32 @_ZN4absl9bit_widthImEENSt9enable_ifIXsr3std11is_unsignedIT_EE5valueEiE4typeES2_(i64 noundef %75) #16
  store i32 %76, ptr %15, align 4, !tbaa !34
  call void @llvm.lifetime.start.p0(i64 8, ptr %16) #16
  %77 = load i64, ptr %11, align 8, !tbaa !12
  %78 = load i32, ptr %15, align 4, !tbaa !34
  %79 = zext i32 %78 to i64
  %80 = lshr i64 %77, %79
  %81 = load i64, ptr %12, align 8, !tbaa !12
  %82 = load i32, ptr %15, align 4, !tbaa !34
  %83 = sub i32 64, %82
  %84 = zext i32 %83 to i64
  %85 = shl i64 %81, %84
  %86 = add i64 %80, %85
  store i64 %86, ptr %16, align 8, !tbaa !12
  call void @llvm.lifetime.start.p0(i64 8, ptr %17) #16
  %87 = load i64, ptr %12, align 8, !tbaa !12
  %88 = load i32, ptr %15, align 4, !tbaa !34
  %89 = zext i32 %88 to i64
  %90 = lshr i64 %87, %89
  %91 = load i64, ptr %13, align 8, !tbaa !12
  %92 = load i32, ptr %15, align 4, !tbaa !34
  %93 = sub i32 64, %92
  %94 = zext i32 %93 to i64
  %95 = shl i64 %91, %94
  %96 = add i64 %90, %95
  store i64 %96, ptr %17, align 8, !tbaa !12
  call void @_ZNSt4pairImmEC2IRmS2_TnNSt9enable_ifIXaaclsr5_PCCPE22_MoveConstructiblePairIT_T0_EEclsr5_PCCPE30_ImplicitlyMoveConvertiblePairIS4_S5_EEEbE4typeELb1EEEOS4_OS5_(ptr noundef nonnull align 8 dereferenceable(16) %4, ptr noundef nonnull align 8 dereferenceable(8) %17, ptr noundef nonnull align 8 dereferenceable(8) %16)
  store i32 1, ptr %14, align 4
  call void @llvm.lifetime.end.p0(i64 8, ptr %17) #16
  call void @llvm.lifetime.end.p0(i64 8, ptr %16) #16
  call void @llvm.lifetime.end.p0(i64 4, ptr %15) #16
  br label %97

97:                                               ; preds = %74, %73
  call void @llvm.lifetime.end.p0(i64 8, ptr %13) #16
  call void @llvm.lifetime.end.p0(i64 8, ptr %12) #16
  call void @llvm.lifetime.end.p0(i64 8, ptr %11) #16
  call void @llvm.lifetime.end.p0(i64 8, ptr %10) #16
  call void @llvm.lifetime.end.p0(i64 8, ptr %9) #16
  call void @llvm.lifetime.end.p0(i64 8, ptr %8) #16
  call void @llvm.lifetime.end.p0(i64 8, ptr %7) #16
  %98 = load { i64, i64 }, ptr %4, align 8
  ret { i64, i64 } %98
}

; Function Attrs: mustprogress nounwind uwtable
define linkonce_odr dso_local void @_ZNSt4pairImmEC2IRmiTnNSt9enable_ifIXaaclsr5_PCCPE22_MoveConstructiblePairIT_T0_EEclsr5_PCCPE30_ImplicitlyMoveConvertiblePairIS4_S5_EEEbE4typeELb1EEEOS4_OS5_(ptr noundef nonnull align 8 dereferenceable(16) %0, ptr noundef nonnull align 8 dereferenceable(8) %1, ptr noundef nonnull align 4 dereferenceable(4) %2) unnamed_addr #4 comdat align 2 {
  %4 = alloca ptr, align 8
  %5 = alloca ptr, align 8
  %6 = alloca ptr, align 8
  store ptr %0, ptr %4, align 8, !tbaa !77
  store ptr %1, ptr %5, align 8, !tbaa !54
  store ptr %2, ptr %6, align 8, !tbaa !50
  %7 = load ptr, ptr %4, align 8
  %8 = getelementptr inbounds nuw %"struct.std::pair", ptr %7, i32 0, i32 0
  %9 = load ptr, ptr %5, align 8, !tbaa !54
  %10 = load i64, ptr %9, align 8, !tbaa !12
  store i64 %10, ptr %8, align 8, !tbaa !47
  %11 = getelementptr inbounds nuw %"struct.std::pair", ptr %7, i32 0, i32 1
  %12 = load ptr, ptr %6, align 8, !tbaa !50
  %13 = load i32, ptr %12, align 4, !tbaa !34
  %14 = sext i32 %13 to i64
  store i64 %14, ptr %11, align 8, !tbaa !49
  ret void
}

; Function Attrs: mustprogress uwtable
define internal { i64, i64 } @_ZN4abslL7PowFiveEmi(i64 noundef %0, i32 noundef %1) #0 {
  %3 = alloca %"struct.std::pair", align 8
  %4 = alloca i64, align 8
  %5 = alloca i32, align 4
  %6 = alloca i32, align 4
  %7 = alloca %"struct.std::pair", align 8
  %8 = alloca %"struct.std::pair", align 8
  %9 = alloca [13 x i32], align 16
  %10 = alloca %"struct.std::pair", align 8
  %11 = alloca %"struct.std::pair", align 8
  %12 = alloca i32, align 4
  store i64 %0, ptr %4, align 8, !tbaa !12
  store i32 %1, ptr %5, align 4, !tbaa !34
  call void @llvm.lifetime.start.p0(i64 4, ptr %6) #16
  store i32 0, ptr %6, align 4, !tbaa !34
  call void @_ZNSt4pairImmEC2IRmiTnNSt9enable_ifIXaaclsr5_PCCPE22_MoveConstructiblePairIT_T0_EEclsr5_PCCPE30_ImplicitlyMoveConvertiblePairIS4_S5_EEEbE4typeELb1EEEOS4_OS5_(ptr noundef nonnull align 8 dereferenceable(16) %3, ptr noundef nonnull align 8 dereferenceable(8) %4, ptr noundef nonnull align 4 dereferenceable(4) %6)
  call void @llvm.lifetime.end.p0(i64 4, ptr %6) #16
  br label %13

13:                                               ; preds = %16, %2
  %14 = load i32, ptr %5, align 4, !tbaa !34
  %15 = icmp sge i32 %14, 13
  br i1 %15, label %16, label %29

16:                                               ; preds = %13
  call void @llvm.lifetime.start.p0(i64 16, ptr %7) #16
  call void @llvm.memcpy.p0.p0.i64(ptr align 8 %8, ptr align 8 %3, i64 16, i1 false)
  %17 = getelementptr inbounds nuw { i64, i64 }, ptr %8, i32 0, i32 0
  %18 = load i64, ptr %17, align 8
  %19 = getelementptr inbounds nuw { i64, i64 }, ptr %8, i32 0, i32 1
  %20 = load i64, ptr %19, align 8
  %21 = call { i64, i64 } @_ZN4abslL5Mul32ESt4pairImmEj(i64 %18, i64 %20, i32 noundef 1220703125)
  %22 = getelementptr inbounds nuw { i64, i64 }, ptr %7, i32 0, i32 0
  %23 = extractvalue { i64, i64 } %21, 0
  store i64 %23, ptr %22, align 8
  %24 = getelementptr inbounds nuw { i64, i64 }, ptr %7, i32 0, i32 1
  %25 = extractvalue { i64, i64 } %21, 1
  store i64 %25, ptr %24, align 8
  %26 = call noundef nonnull align 8 dereferenceable(16) ptr @_ZNSt4pairImmEaSEOS0_(ptr noundef nonnull align 8 dereferenceable(16) %3, ptr noundef nonnull align 8 dereferenceable(16) %7) #16
  call void @llvm.lifetime.end.p0(i64 16, ptr %7) #16
  %27 = load i32, ptr %5, align 4, !tbaa !34
  %28 = sub nsw i32 %27, 13
  store i32 %28, ptr %5, align 4, !tbaa !34
  br label %13, !llvm.loop !79

29:                                               ; preds = %13
  call void @llvm.lifetime.start.p0(i64 52, ptr %9) #16
  call void @llvm.memcpy.p0.p0.i64(ptr align 16 %9, ptr align 16 @__const._ZN4abslL7PowFiveEmi.powers_of_five, i64 52, i1 false)
  call void @llvm.lifetime.start.p0(i64 16, ptr %10) #16
  call void @llvm.memcpy.p0.p0.i64(ptr align 8 %11, ptr align 8 %3, i64 16, i1 false)
  %30 = load i32, ptr %5, align 4, !tbaa !34
  %31 = and i32 %30, 15
  %32 = sext i32 %31 to i64
  %33 = getelementptr inbounds [13 x i32], ptr %9, i64 0, i64 %32
  %34 = load i32, ptr %33, align 4, !tbaa !34
  %35 = getelementptr inbounds nuw { i64, i64 }, ptr %11, i32 0, i32 0
  %36 = load i64, ptr %35, align 8
  %37 = getelementptr inbounds nuw { i64, i64 }, ptr %11, i32 0, i32 1
  %38 = load i64, ptr %37, align 8
  %39 = call { i64, i64 } @_ZN4abslL5Mul32ESt4pairImmEj(i64 %36, i64 %38, i32 noundef %34)
  %40 = getelementptr inbounds nuw { i64, i64 }, ptr %10, i32 0, i32 0
  %41 = extractvalue { i64, i64 } %39, 0
  store i64 %41, ptr %40, align 8
  %42 = getelementptr inbounds nuw { i64, i64 }, ptr %10, i32 0, i32 1
  %43 = extractvalue { i64, i64 } %39, 1
  store i64 %43, ptr %42, align 8
  %44 = call noundef nonnull align 8 dereferenceable(16) ptr @_ZNSt4pairImmEaSEOS0_(ptr noundef nonnull align 8 dereferenceable(16) %3, ptr noundef nonnull align 8 dereferenceable(16) %10) #16
  call void @llvm.lifetime.end.p0(i64 16, ptr %10) #16
  call void @llvm.lifetime.start.p0(i64 4, ptr %12) #16
  %45 = getelementptr inbounds nuw %"struct.std::pair", ptr %3, i32 0, i32 0
  %46 = load i64, ptr %45, align 8, !tbaa !47
  %47 = call noundef i32 @_ZN4absl11countl_zeroImEENSt9enable_ifIXsr3std11is_unsignedIT_EE5valueEiE4typeES2_(i64 noundef %46) #16
  store i32 %47, ptr %12, align 4, !tbaa !34
  %48 = load i32, ptr %12, align 4, !tbaa !34
  %49 = icmp ne i32 %48, 0
  br i1 %49, label %50, label %70

50:                                               ; preds = %29
  %51 = getelementptr inbounds nuw %"struct.std::pair", ptr %3, i32 0, i32 0
  %52 = load i64, ptr %51, align 8, !tbaa !47
  %53 = load i32, ptr %12, align 4, !tbaa !34
  %54 = zext i32 %53 to i64
  %55 = shl i64 %52, %54
  %56 = getelementptr inbounds nuw %"struct.std::pair", ptr %3, i32 0, i32 1
  %57 = load i64, ptr %56, align 8, !tbaa !49
  %58 = load i32, ptr %12, align 4, !tbaa !34
  %59 = sub nsw i32 64, %58
  %60 = zext i32 %59 to i64
  %61 = lshr i64 %57, %60
  %62 = add i64 %55, %61
  %63 = getelementptr inbounds nuw %"struct.std::pair", ptr %3, i32 0, i32 0
  store i64 %62, ptr %63, align 8, !tbaa !47
  %64 = getelementptr inbounds nuw %"struct.std::pair", ptr %3, i32 0, i32 1
  %65 = load i64, ptr %64, align 8, !tbaa !49
  %66 = load i32, ptr %12, align 4, !tbaa !34
  %67 = zext i32 %66 to i64
  %68 = shl i64 %65, %67
  %69 = getelementptr inbounds nuw %"struct.std::pair", ptr %3, i32 0, i32 1
  store i64 %68, ptr %69, align 8, !tbaa !49
  br label %70

70:                                               ; preds = %50, %29
  call void @llvm.lifetime.end.p0(i64 4, ptr %12) #16
  call void @llvm.lifetime.end.p0(i64 52, ptr %9) #16
  %71 = load { i64, i64 }, ptr %3, align 8
  ret { i64, i64 } %71
}