; Function Attrs: mustprogress nofree norecurse nosync nounwind willreturn memory(none) uwtable
define internal fastcc { i64, i64 } @_ZN4abslL7PowFiveEmi(i64 noundef range(i64 0, -1) %0, i32 noundef range(i32 0, -2147483648) %1) unnamed_addr #13 personality ptr @__gxx_personality_v0 {
  %3 = icmp samesign ugt i32 %1, 12
  br i1 %3, label %.lr.ph, label %._crit_edge

.lr.ph:                                           ; preds = %2, %_ZN4abslL5Mul32ESt4pairImmEj.exit
  %.028 = phi i32 [ %35, %_ZN4abslL5Mul32ESt4pairImmEj.exit ], [ %1, %2 ]
  %.sroa.9.027 = phi i64 [ %.sroa.3.0.i, %_ZN4abslL5Mul32ESt4pairImmEj.exit ], [ 0, %2 ]
  %.sroa.018.026 = phi i64 [ %.sroa.0.0.i, %_ZN4abslL5Mul32ESt4pairImmEj.exit ], [ %0, %2 ]
  %4 = and i64 %.sroa.9.027, 4294967295
  %5 = lshr i64 %.sroa.9.027, 32
  %6 = and i64 %.sroa.018.026, 4294967295
  %7 = lshr i64 %.sroa.018.026, 32
  %8 = mul nuw nsw i64 %4, 1220703125
  %9 = mul nuw nsw i64 %5, 1220703125
  %10 = mul nuw nsw i64 %6, 1220703125
  %11 = mul nuw nsw i64 %7, 1220703125
  %12 = mul i64 %5, 5242880000000000000
  %13 = add i64 %12, %8
  %14 = mul i64 %7, 5242880000000000000
  %15 = add i64 %14, %10
  %16 = lshr i64 %9, 32
  %17 = add i64 %15, %16
  %18 = icmp ult i64 %13, %8
  %19 = zext i1 %18 to i64
  %20 = add i64 %17, %19
  %21 = lshr i64 %11, 32
  %22 = icmp ult i64 %20, %10
  %23 = zext i1 %22 to i64
  %24 = add nuw nsw i64 %21, %23
  %25 = icmp eq i64 %24, 0
  br i1 %25, label %_ZN4abslL5Mul32ESt4pairImmEj.exit, label %26

26:                                               ; preds = %.lr.ph
  %27 = tail call range(i64 0, 65) i64 @llvm.ctlz.i64(i64 %24, i1 true)
  %28 = sub nuw nsw i64 64, %27
  %29 = lshr i64 %13, %28
  %30 = shl i64 %20, %27
  %31 = or disjoint i64 %29, %30
  %32 = lshr i64 %20, %28
  %33 = shl i64 %24, %27
  %34 = or disjoint i64 %32, %33
  br label %_ZN4abslL5Mul32ESt4pairImmEj.exit

_ZN4abslL5Mul32ESt4pairImmEj.exit:                ; preds = %.lr.ph, %26
  %.sroa.0.0.i = phi i64 [ %34, %26 ], [ %20, %.lr.ph ]
  %.sroa.3.0.i = phi i64 [ %31, %26 ], [ %13, %.lr.ph ]
  %35 = add nsw i32 %.028, -13
  %36 = icmp sgt i32 %.028, 25
  br i1 %36, label %.lr.ph, label %._crit_edge, !llvm.loop !49

._crit_edge:                                      ; preds = %_ZN4abslL5Mul32ESt4pairImmEj.exit, %2
  %.sroa.018.0.lcssa = phi i64 [ %0, %2 ], [ %.sroa.0.0.i, %_ZN4abslL5Mul32ESt4pairImmEj.exit ]
  %.sroa.9.0.lcssa = phi i64 [ 0, %2 ], [ %.sroa.3.0.i, %_ZN4abslL5Mul32ESt4pairImmEj.exit ]
  %.0.lcssa = phi i32 [ %1, %2 ], [ %35, %_ZN4abslL5Mul32ESt4pairImmEj.exit ]
  %37 = and i32 %.0.lcssa, 15
  %38 = zext nneg i32 %37 to i64
  %39 = getelementptr inbounds nuw [13 x i32], ptr @__const._ZN4abslL7PowFiveEmi.powers_of_five, i64 0, i64 %38
  %40 = load i32, ptr %39, align 4, !tbaa !31
  %41 = and i64 %.sroa.9.0.lcssa, 4294967295
  %42 = lshr i64 %.sroa.9.0.lcssa, 32
  %43 = and i64 %.sroa.018.0.lcssa, 4294967295
  %44 = lshr i64 %.sroa.018.0.lcssa, 32
  %45 = zext i32 %40 to i64
  %46 = mul nuw i64 %41, %45
  %47 = mul nuw i64 %42, %45
  %48 = mul nuw i64 %43, %45
  %49 = mul nuw i64 %44, %45
  %50 = shl i64 %47, 32
  %51 = add i64 %50, %46
  %52 = shl i64 %49, 32
  %53 = add i64 %52, %48
  %54 = lshr i64 %47, 32
  %55 = add i64 %53, %54
  %56 = icmp ult i64 %51, %46
  %57 = zext i1 %56 to i64
  %58 = add i64 %55, %57
  %59 = lshr i64 %49, 32
  %60 = icmp ult i64 %58, %48
  %61 = zext i1 %60 to i64
  %62 = add nuw nsw i64 %59, %61
  %63 = icmp eq i64 %62, 0
  br i1 %63, label %_ZN4abslL5Mul32ESt4pairImmEj.exit14, label %64

64:                                               ; preds = %._crit_edge
  %65 = tail call range(i64 0, 65) i64 @llvm.ctlz.i64(i64 %62, i1 true)
  %66 = sub nuw nsw i64 64, %65
  %67 = lshr i64 %51, %66
  %68 = shl i64 %58, %65
  %69 = or disjoint i64 %67, %68
  %70 = lshr i64 %58, %66
  %71 = shl i64 %62, %65
  %72 = or disjoint i64 %70, %71
  br label %_ZN4abslL5Mul32ESt4pairImmEj.exit14

_ZN4abslL5Mul32ESt4pairImmEj.exit14:              ; preds = %._crit_edge, %64
  %.sroa.0.0.i10 = phi i64 [ %72, %64 ], [ %58, %._crit_edge ]
  %.sroa.3.0.i11 = phi i64 [ %69, %64 ], [ %51, %._crit_edge ]
  %73 = freeze i64 %.sroa.3.0.i11
  %74 = tail call range(i64 0, 65) i64 @llvm.ctlz.i64(i64 %.sroa.0.0.i10, i1 false)
  %75 = shl i64 %73, %74
  %76 = tail call i64 @llvm.fshl.i64(i64 %.sroa.0.0.i10, i64 %73, i64 %74)
  %.fca.0.insert = insertvalue { i64, i64 } poison, i64 %76, 0
  %.fca.1.insert = insertvalue { i64, i64 } %.fca.0.insert, i64 %75, 1
  ret { i64, i64 } %.fca.1.insert
}